target datalayout = "e-m:e-p270:32:32-p271:32:32-p272:64:64-i64:64-i128:128-f80:128-n8:16:32:64-S128"
target triple = "x86_64-pc-linux-gnu"

%"struct.llvm::AArch64InstrTable" = type { [8173 x %"class.llvm::MCInstrDesc"], [2438 x %"class.llvm::MCOperandInfo"], [74 x i16] }
%"class.llvm::MCInstrDesc" = type { i16, i16, i8, i8, i16, i8, i8, i16, i16, i64, i64 }
%"class.llvm::MCOperandInfo" = type { i16, i8, i8, i16 }
%"class.llvm::TargetInstrInfo" = type { ptr, %"class.llvm::MCInstrInfo.base", %"class.std::unique_ptr", i32, i32, i32, i32 }
%"class.llvm::MCInstrInfo.base" = type <{ ptr, ptr, ptr, ptr, ptr, i32 }>
%"class.std::unique_ptr" = type { %"struct.std::__uniq_ptr_data" }
%"struct.std::__uniq_ptr_data" = type { %"class.std::__uniq_ptr_impl" }
%"class.std::__uniq_ptr_impl" = type { %"class.std::tuple" }
%"class.std::tuple" = type { %"struct.std::_Tuple_impl" }
%"struct.std::_Tuple_impl" = type { %"struct.std::_Head_base.1" }
%"struct.std::_Head_base.1" = type { ptr }
%"class.llvm::MCInstrInfo" = type <{ ptr, ptr, ptr, ptr, ptr, i32, [4 x i8] }>

@_ZN4llvm12AArch64DescsE = external global %"struct.llvm::AArch64InstrTable", align 8
@_ZN4llvm23AArch64InstrNameIndicesE = external constant [0 x i32], align 4
@_ZN4llvm20AArch64InstrNameDataE = external constant [0 x i8], align 1
@_ZTVN4llvm15TargetInstrInfoE = external unnamed_addr constant { [179 x ptr] }, align 8

; Function Attrs: mustprogress nounwind uwtable
define linkonce_odr hidden void @_ZNSt10_Head_baseILm1ESt14default_deleteIN4llvm12MIRFormatterEELb1EEC2Ev(ptr noundef nonnull align 1 dereferenceable(1) %0) unnamed_addr #0 comdat align 2 {
  %2 = alloca ptr, align 8
  store ptr %0, ptr %2, align 8
  ret void
}

; Function Attrs: mustprogress nounwind uwtable
define linkonce_odr hidden void @_ZNSt10_Head_baseILm0EPN4llvm12MIRFormatterELb0EEC2Ev(ptr noundef nonnull align 8 dereferenceable(8) %0) unnamed_addr #0 comdat align 2 {
  %2 = alloca ptr, align 8
  store ptr %0, ptr %2, align 8
  %3 = load ptr, ptr %2, align 8
  %4 = getelementptr inbounds nuw %"struct.std::_Head_base.1", ptr %3, i32 0, i32 0
  store ptr null, ptr %4, align 8
  ret void
}

; Function Attrs: mustprogress nounwind uwtable
define linkonce_odr hidden void @_ZNSt11_Tuple_implILm1EJSt14default_deleteIN4llvm12MIRFormatterEEEEC2Ev(ptr noundef nonnull align 1 dereferenceable(1) %0) unnamed_addr #0 comdat align 2 {
  %2 = alloca ptr, align 8
  store ptr %0, ptr %2, align 8
  %3 = load ptr, ptr %2, align 8
  call void @_ZNSt10_Head_baseILm1ESt14default_deleteIN4llvm12MIRFormatterEELb1EEC2Ev(ptr noundef nonnull align 1 dereferenceable(1) %3)
  ret void
}

; Function Attrs: mustprogress nounwind uwtable
define linkonce_odr hidden void @_ZNSt11_Tuple_implILm0EJPN4llvm12MIRFormatterESt14default_deleteIS1_EEEC2Ev(ptr noundef nonnull align 8 dereferenceable(8) %0) unnamed_addr #0 comdat align 2 {
  %2 = alloca ptr, align 8
  store ptr %0, ptr %2, align 8
  %3 = load ptr, ptr %2, align 8
  call void @_ZNSt11_Tuple_implILm1EJSt14default_deleteIN4llvm12MIRFormatterEEEEC2Ev(ptr noundef nonnull align 1 dereferenceable(1) %3)
  call void @_ZNSt10_Head_baseILm0EPN4llvm12MIRFormatterELb0EEC2Ev(ptr noundef nonnull align 8 dereferenceable(8) %3)
  ret void
}

; Function Attrs: mustprogress nounwind uwtable
define linkonce_odr hidden void @_ZNSt5tupleIJPN4llvm12MIRFormatterESt14default_deleteIS1_EEEC2ILb1ETnNSt9enable_ifIXclsr17_TupleConstraintsIXT_ES2_S4_EE37__is_implicitly_default_constructibleEEbE4typeELb1EEEv(ptr noundef nonnull align 8 dereferenceable(8) %0) unnamed_addr #0 comdat align 2 {
  %2 = alloca ptr, align 8
  store ptr %0, ptr %2, align 8
  %3 = load ptr, ptr %2, align 8
  call void @_ZNSt11_Tuple_implILm0EJPN4llvm12MIRFormatterESt14default_deleteIS1_EEEC2Ev(ptr noundef nonnull align 8 dereferenceable(8) %3)
  ret void
}

; Function Attrs: mustprogress nounwind uwtable
define linkonce_odr hidden void @_ZNSt15__uniq_ptr_implIN4llvm12MIRFormatterESt14default_deleteIS1_EEC2Ev(ptr noundef nonnull align 8 dereferenceable(8) %0) unnamed_addr #0 comdat align 2 {
  %2 = alloca ptr, align 8
  store ptr %0, ptr %2, align 8
  %3 = load ptr, ptr %2, align 8
  %4 = getelementptr inbounds nuw %"class.std::__uniq_ptr_impl", ptr %3, i32 0, i32 0
  call void @_ZNSt5tupleIJPN4llvm12MIRFormatterESt14default_deleteIS1_EEEC2ILb1ETnNSt9enable_ifIXclsr17_TupleConstraintsIXT_ES2_S4_EE37__is_implicitly_default_constructibleEEbE4typeELb1EEEv(ptr noundef nonnull align 8 dereferenceable(8) %4) #2
  ret void
}

; Function Attrs: mustprogress nounwind uwtable
define linkonce_odr hidden void @_ZNSt15__uniq_ptr_dataIN4llvm12MIRFormatterESt14default_deleteIS1_ELb1ELb1EEC2Ev(ptr noundef nonnull align 8 dereferenceable(8) %0) unnamed_addr #0 comdat align 2 {
  %2 = alloca ptr, align 8
  store ptr %0, ptr %2, align 8
  %3 = load ptr, ptr %2, align 8
  call void @_ZNSt15__uniq_ptr_implIN4llvm12MIRFormatterESt14default_deleteIS1_EEC2Ev(ptr noundef nonnull align 8 dereferenceable(8) %3) #2
  ret void
}

; Function Attrs: mustprogress nounwind uwtable
define linkonce_odr hidden void @_ZNSt10unique_ptrIN4llvm12MIRFormatterESt14default_deleteIS1_EEC2IS3_vEEv(ptr noundef nonnull align 8 dereferenceable(8) %0) unnamed_addr #0 comdat align 2 {
  %2 = alloca ptr, align 8
  store ptr %0, ptr %2, align 8
  %3 = load ptr, ptr %2, align 8
  %4 = getelementptr inbounds nuw %"class.std::unique_ptr", ptr %3, i32 0, i32 0
  call void @llvm.memset.p0.i64(ptr align 8 %4, i8 0, i64 8, i1 false)
  call void @_ZNSt15__uniq_ptr_dataIN4llvm12MIRFormatterESt14default_deleteIS1_ELb1ELb1EEC2Ev(ptr noundef nonnull align 8 dereferenceable(8) %4) #2
  ret void
}

; Function Attrs: mustprogress nounwind uwtable
define linkonce_odr hidden void @_ZN4llvm11MCInstrInfo15InitMCInstrInfoEPKNS_11MCInstrDescEPKjPKcPKhPKPFbRNS_6MCInstERKNS_15MCSubtargetInfoERNSt7__cxx1112basic_stringIcSt11char_traitsIcESaIcEEEEj(ptr noundef nonnull align 8 dereferenceable(44) %0, ptr noundef %1, ptr noundef %2, ptr noundef %3, ptr noundef %4, ptr noundef %5, i32 noundef %6) #0 comdat align 2 {
  %8 = alloca ptr, align 8
  %9 = alloca ptr, align 8
  %10 = alloca ptr, align 8
  %11 = alloca ptr, align 8
  %12 = alloca ptr, align 8
  %13 = alloca ptr, align 8
  %14 = alloca i32, align 4
  store ptr %0, ptr %8, align 8
  store ptr %1, ptr %9, align 8
  store ptr %2, ptr %10, align 8
  store ptr %3, ptr %11, align 8
  store ptr %4, ptr %12, align 8
  store ptr %5, ptr %13, align 8
  store i32 %6, ptr %14, align 4
  %15 = load ptr, ptr %8, align 8
  %16 = load ptr, ptr %9, align 8
  %17 = load i32, ptr %14, align 4
  %18 = zext i32 %17 to i64
  %19 = getelementptr inbounds %"class.llvm::MCInstrDesc", ptr %16, i64 %18
  %20 = getelementptr inbounds %"class.llvm::MCInstrDesc", ptr %19, i64 -1
  %21 = getelementptr inbounds nuw %"class.llvm::MCInstrInfo", ptr %15, i32 0, i32 0
  store ptr %20, ptr %21, align 8
  %22 = load ptr, ptr %10, align 8
  %23 = getelementptr inbounds nuw %"class.llvm::MCInstrInfo", ptr %15, i32 0, i32 1
  store ptr %22, ptr %23, align 8
  %24 = load ptr, ptr %11, align 8
  %25 = getelementptr inbounds nuw %"class.llvm::MCInstrInfo", ptr %15, i32 0, i32 2
  store ptr %24, ptr %25, align 8
  %26 = load ptr, ptr %12, align 8
  %27 = getelementptr inbounds nuw %"class.llvm::MCInstrInfo", ptr %15, i32 0, i32 3
  store ptr %26, ptr %27, align 8
  %28 = load ptr, ptr %13, align 8
  %29 = getelementptr inbounds nuw %"class.llvm::MCInstrInfo", ptr %15, i32 0, i32 4
  store ptr %28, ptr %29, align 8
  %30 = load i32, ptr %14, align 4
  %31 = getelementptr inbounds nuw %"class.llvm::MCInstrInfo", ptr %15, i32 0, i32 5
  store i32 %30, ptr %31, align 8
  ret void
}

; Function Attrs: mustprogress nounwind uwtable
define linkonce_odr hidden void @_ZN4llvm15TargetInstrInfoC2Ejjjj(ptr noundef nonnull align 8 dereferenceable(80) %0, i32 noundef %1, i32 noundef %2, i32 noundef %3, i32 noundef %4) unnamed_addr #0 comdat align 2 {
  %6 = alloca ptr, align 8
  %7 = alloca i32, align 4
  %8 = alloca i32, align 4
  %9 = alloca i32, align 4
  %10 = alloca i32, align 4
  store ptr %0, ptr %6, align 8
  store i32 %1, ptr %7, align 4
  store i32 %2, ptr %8, align 4
  store i32 %3, ptr %9, align 4
  store i32 %4, ptr %10, align 4
  %11 = load ptr, ptr %6, align 8
  store ptr getelementptr inbounds inrange(-16, 1416) ({ [179 x ptr] }, ptr @_ZTVN4llvm15TargetInstrInfoE, i32 0, i32 0, i32 2), ptr %11, align 8
  %12 = getelementptr inbounds nuw %"class.llvm::TargetInstrInfo", ptr %11, i32 0, i32 2
  call void @_ZNSt10unique_ptrIN4llvm12MIRFormatterESt14default_deleteIS1_EEC2IS3_vEEv(ptr noundef nonnull align 8 dereferenceable(8) %12) #2
  %13 = getelementptr inbounds nuw %"class.llvm::TargetInstrInfo", ptr %11, i32 0, i32 3
  %14 = load i32, ptr %7, align 4
  store i32 %14, ptr %13, align 8
  %15 = getelementptr inbounds nuw %"class.llvm::TargetInstrInfo", ptr %11, i32 0, i32 4
  %16 = load i32, ptr %8, align 4
  store i32 %16, ptr %15, align 4
  %17 = getelementptr inbounds nuw %"class.llvm::TargetInstrInfo", ptr %11, i32 0, i32 5
  %18 = load i32, ptr %9, align 4
  store i32 %18, ptr %17, align 8
  %19 = getelementptr inbounds nuw %"class.llvm::TargetInstrInfo", ptr %11, i32 0, i32 6
  %20 = load i32, ptr %10, align 4
  store i32 %20, ptr %19, align 4
  ret void
}

; Function Attrs: mustprogress nounwind uwtable
define dso_local void @_ZN4llvm19AArch64GenInstrInfoC2Ejjjj(ptr noundef nonnull align 8 dereferenceable(80) %0, i32 noundef %1, i32 noundef %2, i32 noundef %3, i32 noundef %4) unnamed_addr #0 align 2 {
  %6 = alloca ptr, align 8
  %7 = alloca i32, align 4
  %8 = alloca i32, align 4
  %9 = alloca i32, align 4
  %10 = alloca i32, align 4
  store ptr %0, ptr %6, align 8
  store i32 %1, ptr %7, align 4
  store i32 %2, ptr %8, align 4
  store i32 %3, ptr %9, align 4
  store i32 %4, ptr %10, align 4
  %11 = load ptr, ptr %6, align 8
  %12 = load i32, ptr %7, align 4
  %13 = load i32, ptr %8, align 4
  %14 = load i32, ptr %9, align 4
  %15 = load i32, ptr %10, align 4
  call void @_ZN4llvm15TargetInstrInfoC2Ejjjj(ptr noundef nonnull align 8 dereferenceable(80) %11, i32 noundef %12, i32 noundef %13, i32 noundef %14, i32 noundef %15)
  store ptr getelementptr inbounds inrange(-16, 1416) ({ [179 x ptr] }, ptr @_ZTVN4llvm19AArch64GenInstrInfoE, i32 0, i32 0, i32 2), ptr %11, align 8
  %16 = getelementptr inbounds i8, ptr %11, i64 8
  call void @_ZN4llvm11MCInstrInfo15InitMCInstrInfoEPKNS_11MCInstrDescEPKjPKcPKhPKPFbRNS_6MCInstERKNS_15MCSubtargetInfoERNSt7__cxx1112basic_stringIcSt11char_traitsIcESaIcEEEEj(ptr noundef nonnull align 8 dereferenceable(44) %16, ptr noundef @_ZN4llvm12AArch64DescsE, ptr noundef @_ZN4llvm23AArch64InstrNameIndicesE, ptr noundef @_ZN4llvm20AArch64InstrNameDataE, ptr noundef null, ptr noundef null, i32 noundef 8173)
  ret void
}