; Function Attrs: mustprogress nofree norecurse nosync nounwind willreturn memory(argmem: write) uwtable
define dso_local void @_ZN4llvm19AArch64GenInstrInfoC2Ejjjj(ptr nocapture noundef nonnull writeonly align 8 dereferenceable(80) %0, i32 noundef %1, i32 noundef %2, i32 noundef %3, i32 noundef %4) unnamed_addr #0 align 2 {
  %6 = getelementptr inbounds nuw i8, ptr %0, i64 56
  store ptr null, ptr %6, align 8
  %7 = getelementptr inbounds nuw i8, ptr %0, i64 64
  store i32 %1, ptr %7, align 8
  %8 = getelementptr inbounds nuw i8, ptr %0, i64 68
  store i32 %2, ptr %8, align 4
  %9 = getelementptr inbounds nuw i8, ptr %0, i64 72
  store i32 %3, ptr %9, align 8
  %10 = getelementptr inbounds nuw i8, ptr %0, i64 76
  store i32 %4, ptr %10, align 4
  store ptr getelementptr inbounds inrange(-16, 1416) (i8, ptr @_ZTVN4llvm19AArch64GenInstrInfoE, i64 16), ptr %0, align 8
  %11 = getelementptr inbounds i8, ptr %0, i64 8
  store ptr getelementptr inbounds (i8, ptr @_ZN4llvm12AArch64DescsE, i64 261504), ptr %11, align 8
  %12 = getelementptr inbounds i8, ptr %0, i64 16
  store ptr @_ZN4llvm23AArch64InstrNameIndicesE, ptr %12, align 8
  %13 = getelementptr inbounds i8, ptr %0, i64 24
  store ptr @_ZN4llvm20AArch64InstrNameDataE, ptr %13, align 8
  %14 = getelementptr inbounds i8, ptr %0, i64 32
  %15 = getelementptr inbounds i8, ptr %0, i64 48
  tail call void @llvm.memset.p0.i64(ptr noundef nonnull align 8 dereferenceable(16) %14, i8 0, i64 16, i1 false)
  store i32 8173, ptr %15, align 8
  ret void
}